target datalayout = "e-m:e-p270:32:32-p271:32:32-p272:64:64-i64:64-i128:128-f80:128-n8:16:32:64-S128"
target triple = "x86_64-pc-linux-gnu"

%"class.icu_77::DateTimeRule" = type <{ %"class.icu_77::UObject", i32, i32, i32, i32, i32, i32, i32, [4 x i8] }>
%"class.icu_77::UObject" = type { ptr }

@_ZTVN6icu_7712DateTimeRuleE = unnamed_addr constant { [5 x ptr] } { [5 x ptr] [ptr null, ptr @_ZTIN6icu_7712DateTimeRuleE, ptr @_ZN6icu_7712DateTimeRuleD1Ev, ptr @_ZN6icu_7712DateTimeRuleD0Ev, ptr @_ZNK6icu_7712DateTimeRule17getDynamicClassIDEv] }, align 8
@_ZTVN6icu_777UObjectE = available_externally unnamed_addr constant { [5 x ptr] } { [5 x ptr] [ptr null, ptr @_ZTIN6icu_777UObjectE, ptr @_ZN6icu_777UObjectD1Ev, ptr @_ZN6icu_777UObjectD0Ev, ptr @_ZNK6icu_777UObject17getDynamicClassIDEv] }, align 8

; Function Attrs: inlinehint mustprogress nounwind uwtable
define linkonce_odr void @_ZN6icu_777UObjectC2Ev(ptr noundef nonnull align 8 dereferenceable(8) %0) unnamed_addr #1 comdat align 2 {
  %2 = alloca ptr, align 8
  store ptr %0, ptr %2, align 8, !tbaa !24
  %3 = load ptr, ptr %2, align 8
  store ptr getelementptr inbounds inrange(-16, 24) ({ [5 x ptr] }, ptr @_ZTVN6icu_777UObjectE, i32 0, i32 0, i32 2), ptr %3, align 8, !tbaa !12
  ret void
}

; Function Attrs: mustprogress nounwind uwtable
define void @_ZN6icu_7712DateTimeRuleC2EiiiNS0_12TimeRuleTypeE(ptr noundef nonnull align 8 dereferenceable(36) %0, i32 noundef %1, i32 noundef %2, i32 noundef %3, i32 noundef %4) unnamed_addr #0 align 2 {
  %6 = alloca ptr, align 8
  %7 = alloca i32, align 4
  %8 = alloca i32, align 4
  %9 = alloca i32, align 4
  %10 = alloca i32, align 4
  store ptr %0, ptr %6, align 8, !tbaa !3
  store i32 %1, ptr %7, align 4, !tbaa !8
  store i32 %2, ptr %8, align 4, !tbaa !8
  store i32 %3, ptr %9, align 4, !tbaa !8
  store i32 %4, ptr %10, align 4, !tbaa !10
  %11 = load ptr, ptr %6, align 8
  call void @_ZN6icu_777UObjectC2Ev(ptr noundef nonnull align 8 dereferenceable(8) %11) #6
  store ptr getelementptr inbounds inrange(-16, 24) ({ [5 x ptr] }, ptr @_ZTVN6icu_7712DateTimeRuleE, i32 0, i32 0, i32 2), ptr %11, align 8, !tbaa !12
  %12 = getelementptr inbounds nuw %"class.icu_77::DateTimeRule", ptr %11, i32 0, i32 1
  %13 = load i32, ptr %7, align 4, !tbaa !8
  store i32 %13, ptr %12, align 8, !tbaa !14
  %14 = getelementptr inbounds nuw %"class.icu_77::DateTimeRule", ptr %11, i32 0, i32 2
  %15 = load i32, ptr %8, align 4, !tbaa !8
  store i32 %15, ptr %14, align 4, !tbaa !18
  %16 = getelementptr inbounds nuw %"class.icu_77::DateTimeRule", ptr %11, i32 0, i32 3
  store i32 0, ptr %16, align 8, !tbaa !19
  %17 = getelementptr inbounds nuw %"class.icu_77::DateTimeRule", ptr %11, i32 0, i32 4
  store i32 0, ptr %17, align 4, !tbaa !20
  %18 = getelementptr inbounds nuw %"class.icu_77::DateTimeRule", ptr %11, i32 0, i32 5
  %19 = load i32, ptr %9, align 4, !tbaa !8
  store i32 %19, ptr %18, align 8, !tbaa !21
  %20 = getelementptr inbounds nuw %"class.icu_77::DateTimeRule", ptr %11, i32 0, i32 6
  store i32 0, ptr %20, align 4, !tbaa !22
  %21 = getelementptr inbounds nuw %"class.icu_77::DateTimeRule", ptr %11, i32 0, i32 7
  %22 = load i32, ptr %10, align 4, !tbaa !10
  store i32 %22, ptr %21, align 8, !tbaa !23
  ret void
}